target datalayout = "e-m:e-p270:32:32-p271:32:32-p272:64:64-i64:64-i128:128-f80:128-n8:16:32:64-S128"
target triple = "x86_64-pc-linux-gnu"

%"class.VrmlTranslator::Token" = type { i32, i32, i32, i32, ptr, ptr }
%"class.VrmlTranslator::Scanner" = type { ptr, ptr, ptr, ptr, i8, i32, i32, i32, i32, %"class.VrmlTranslator::StartStates", %"class.VrmlTranslator::KeywordMap", ptr, ptr, i32, i32, ptr, ptr, i32, i32, i32, i32, i32, ptr }
%"class.VrmlTranslator::StartStates" = type { ptr, ptr }
%"class.VrmlTranslator::KeywordMap" = type { ptr, ptr }

; Function Attrs: mustprogress uwtable
define noundef ptr @_ZN14VrmlTranslator7Scanner4ScanEv(ptr noundef nonnull align 8 dereferenceable(160) %0) #1 align 2 {
  %2 = alloca ptr, align 8
  %3 = alloca ptr, align 8
  store ptr %0, ptr %3, align 8
  %4 = load ptr, ptr %3, align 8
  %5 = getelementptr inbounds %"class.VrmlTranslator::Scanner", ptr %4, i32 0, i32 15
  %6 = load ptr, ptr %5, align 8
  %7 = getelementptr inbounds %"class.VrmlTranslator::Token", ptr %6, i32 0, i32 5
  %8 = load ptr, ptr %7, align 8
  %9 = icmp eq ptr %8, null
  br i1 %9, label %10, label %14

10:                                               ; preds = %1
  %11 = call noundef ptr @_ZN14VrmlTranslator7Scanner9NextTokenEv(ptr noundef nonnull align 8 dereferenceable(160) %4)
  %12 = getelementptr inbounds %"class.VrmlTranslator::Scanner", ptr %4, i32 0, i32 15
  store ptr %11, ptr %12, align 8
  %13 = getelementptr inbounds %"class.VrmlTranslator::Scanner", ptr %4, i32 0, i32 16
  store ptr %11, ptr %13, align 8
  store ptr %11, ptr %2, align 8
  br label %23

14:                                               ; preds = %1
  %15 = getelementptr inbounds %"class.VrmlTranslator::Scanner", ptr %4, i32 0, i32 15
  %16 = load ptr, ptr %15, align 8
  %17 = getelementptr inbounds %"class.VrmlTranslator::Token", ptr %16, i32 0, i32 5
  %18 = load ptr, ptr %17, align 8
  %19 = getelementptr inbounds %"class.VrmlTranslator::Scanner", ptr %4, i32 0, i32 15
  store ptr %18, ptr %19, align 8
  %20 = getelementptr inbounds %"class.VrmlTranslator::Scanner", ptr %4, i32 0, i32 16
  store ptr %18, ptr %20, align 8
  %21 = getelementptr inbounds %"class.VrmlTranslator::Scanner", ptr %4, i32 0, i32 15
  %22 = load ptr, ptr %21, align 8
  store ptr %22, ptr %2, align 8
  br label %23

23:                                               ; preds = %14, %10
  %24 = load ptr, ptr %2, align 8
  ret ptr %24
}