; Function Attrs: mustprogress uwtable
define noundef ptr @_ZN14VrmlTranslator7Scanner4ScanEv(ptr noundef nonnull align 8 dereferenceable(160) %0) local_unnamed_addr #2 align 2 {
  %2 = getelementptr inbounds i8, ptr %0, i64 112
  %3 = load ptr, ptr %2, align 8
  %4 = getelementptr inbounds i8, ptr %3, i64 24
  %5 = load ptr, ptr %4, align 8
  %6 = icmp eq ptr %5, null
  br i1 %6, label %7, label %9

7:                                                ; preds = %1
  %8 = tail call noundef ptr @_ZN14VrmlTranslator7Scanner9NextTokenEv(ptr noundef nonnull align 8 dereferenceable(160) %0)
  br label %9

9:                                                ; preds = %1, %7
  %.sink3 = phi ptr [ %8, %7 ], [ %5, %1 ]
  store ptr %.sink3, ptr %2, align 8
  %10 = getelementptr inbounds i8, ptr %0, i64 120
  store ptr %.sink3, ptr %10, align 8
  ret ptr %.sink3
}